target datalayout = "e-m:e-p270:32:32-p271:32:32-p272:64:64-i64:64-i128:128-f80:128-n8:16:32:64-S128"
target triple = "x86_64-unknown-linux-gnu"

%"class.std::__cxx11::basic_string" = type { %"struct.std::__cxx11::basic_string<char>::_Alloc_hider", i64, %union.anon }
%"struct.std::__cxx11::basic_string<char>::_Alloc_hider" = type { ptr }
%union.anon = type { i64, [8 x i8] }
%"struct.node::builtins::CodeCacheInfo" = type { %"class.std::__cxx11::basic_string", %"class.node::builtins::BuiltinCodeCacheData" }
%"class.node::builtins::BuiltinCodeCacheData" = type { ptr, i64, %"class.std::shared_ptr" }
%"class.std::shared_ptr" = type { %"class.std::__shared_ptr" }
%"class.std::__shared_ptr" = type { ptr, %"class.std::__shared_count" }
%"class.std::__shared_count" = type { ptr }
%"class.node::BlobSerializerDeserializer" = type { i8 }
%"class.std::basic_string_view" = type { i64, ptr }

@.str.46 = private unnamed_addr constant [54 x i8] c"\0AWrite<builtins::CodeCacheInfo>() id = %s, length=%d\0A\00", align 1
@.str.47 = private unnamed_addr constant [49 x i8] c"Write<builtins::CodeCacheInfo>() wrote %d bytes\0A\00", align 1
@stderr = external global ptr, align 8

; Function Attrs: mustprogress nounwind uwtable
define linkonce_odr dso_local void @_ZNK4node26BlobSerializerDeserializer5DebugIJRmEEEvPKcDpOT_(ptr noundef nonnull align 1 dereferenceable(1) %this, ptr noundef %format, ptr noundef nonnull align 8 dereferenceable(8) %args) #4 comdat align 2 {
entry:
  %this.addr = alloca ptr, align 8
  %format.addr = alloca ptr, align 8
  %args.addr = alloca ptr, align 8
  store ptr %this, ptr %this.addr, align 8
  store ptr %format, ptr %format.addr, align 8
  store ptr %args, ptr %args.addr, align 8
  %this1 = load ptr, ptr %this.addr, align 8
  %is_debug = getelementptr inbounds %"class.node::BlobSerializerDeserializer", ptr %this1, i32 0, i32 0
  %0 = load i8, ptr %is_debug, align 1
  %tobool = trunc i8 %0 to i1
  br i1 %tobool, label %if.then, label %if.end

if.then:                                          ; preds = %entry
  %1 = load ptr, ptr @stderr, align 8
  %2 = load ptr, ptr %format.addr, align 8
  %3 = load ptr, ptr %args.addr, align 8
  call void @_ZN4node7FPrintFIJRmEEEvP8_IO_FILEPKcDpOT_(ptr noundef %1, ptr noundef %2, ptr noundef nonnull align 8 dereferenceable(8) %3) #18
  br label %if.end

if.end:                                           ; preds = %if.then, %entry
  ret void
}

; Function Attrs: mustprogress nounwind uwtable
define linkonce_odr dso_local noundef i64 @_ZN4node14BlobSerializerINS_18SnapshotSerializerEE15WriteArithmeticImEEmRKT_(ptr noundef nonnull align 8 dereferenceable(32) %this, ptr noundef nonnull align 8 dereferenceable(8) %data) #4 comdat align 2 {
entry:
  %this.addr = alloca ptr, align 8
  %data.addr = alloca ptr, align 8
  store ptr %this, ptr %this.addr, align 8
  store ptr %data, ptr %data.addr, align 8
  %this1 = load ptr, ptr %this.addr, align 8
  %0 = load ptr, ptr %data.addr, align 8
  %call = call noundef i64 @_ZN4node14BlobSerializerINS_18SnapshotSerializerEE15WriteArithmeticImEEmPKT_m(ptr noundef nonnull align 8 dereferenceable(32) %this1, ptr noundef %0, i64 noundef 1)
  ret i64 %call
}

; Function Attrs: mustprogress nounwind uwtable
define linkonce_odr dso_local noundef i64 @_ZN4node14BlobSerializerINS_18SnapshotSerializerEE11WriteStringERKNSt7__cxx1112basic_stringIcSt11char_traitsIcESaIcEEE(ptr noundef nonnull align 8 dereferenceable(32) %this, ptr noundef nonnull align 8 dereferenceable(32) %data) #4 comdat align 2 {
entry:
  %this.addr = alloca ptr, align 8
  %data.addr = alloca ptr, align 8
  %agg.tmp = alloca %"class.std::basic_string_view", align 8
  store ptr %this, ptr %this.addr, align 8
  store ptr %data, ptr %data.addr, align 8
  %this1 = load ptr, ptr %this.addr, align 8
  %0 = load ptr, ptr %data.addr, align 8
  %call = call { i64, ptr } @_ZNKSt7__cxx1112basic_stringIcSt11char_traitsIcESaIcEEcvSt17basic_string_viewIcS2_EEv(ptr noundef nonnull align 8 dereferenceable(32) %0) #3
  %1 = getelementptr inbounds { i64, ptr }, ptr %agg.tmp, i32 0, i32 0
  %2 = extractvalue { i64, ptr } %call, 0
  store i64 %2, ptr %1, align 8
  %3 = getelementptr inbounds { i64, ptr }, ptr %agg.tmp, i32 0, i32 1
  %4 = extractvalue { i64, ptr } %call, 1
  store ptr %4, ptr %3, align 8
  %5 = getelementptr inbounds { i64, ptr }, ptr %agg.tmp, i32 0, i32 0
  %6 = load i64, ptr %5, align 8
  %7 = getelementptr inbounds { i64, ptr }, ptr %agg.tmp, i32 0, i32 1
  %8 = load ptr, ptr %7, align 8
  %call2 = call noundef i64 @_ZN4node14BlobSerializerINS_18SnapshotSerializerEE15WriteStringViewESt17basic_string_viewIcSt11char_traitsIcEENS_13StringLogModeE(ptr noundef nonnull align 8 dereferenceable(32) %this1, i64 %6, ptr %8, i32 noundef 1)
  ret i64 %call2
}

; Function Attrs: mustprogress nounwind uwtable
define linkonce_odr dso_local void @_ZNK4node26BlobSerializerDeserializer5DebugIJPKcRKmEEEvS3_DpOT_(ptr noundef nonnull align 1 dereferenceable(1) %this, ptr noundef %format, ptr noundef nonnull align 8 dereferenceable(8) %args, ptr noundef nonnull align 8 dereferenceable(8) %args1) #4 comdat align 2 {
entry:
  %this.addr = alloca ptr, align 8
  %format.addr = alloca ptr, align 8
  %args.addr = alloca ptr, align 8
  %args.addr2 = alloca ptr, align 8
  store ptr %this, ptr %this.addr, align 8
  store ptr %format, ptr %format.addr, align 8
  store ptr %args, ptr %args.addr, align 8
  store ptr %args1, ptr %args.addr2, align 8
  %this3 = load ptr, ptr %this.addr, align 8
  %is_debug = getelementptr inbounds %"class.node::BlobSerializerDeserializer", ptr %this3, i32 0, i32 0
  %0 = load i8, ptr %is_debug, align 1
  %tobool = trunc i8 %0 to i1
  br i1 %tobool, label %if.then, label %if.end

if.then:                                          ; preds = %entry
  %1 = load ptr, ptr @stderr, align 8
  %2 = load ptr, ptr %format.addr, align 8
  %3 = load ptr, ptr %args.addr, align 8
  %4 = load ptr, ptr %args.addr2, align 8
  call void @_ZN4node7FPrintFIJPKcRKmEEEvP8_IO_FILES2_DpOT_(ptr noundef %1, ptr noundef %2, ptr noundef nonnull align 8 dereferenceable(8) %3, ptr noundef nonnull align 8 dereferenceable(8) %4) #18
  br label %if.end

if.end:                                           ; preds = %if.then, %entry
  ret void
}

; Function Attrs: mustprogress nounwind uwtable
define dso_local noundef i64 @_ZN4node18SnapshotSerializer5WriteINS_8builtins13CodeCacheInfoETnPNSt9enable_ifIXntsr3std7is_sameIT_NSt7__cxx1112basic_stringIcSt11char_traitsIcESaIcEEEEE5valueEvE4typeELPv0ETnPNS4_IXntsr3std13is_arithmeticIS5_EE5valueEvE4typeELSF_0EEEmRKS5_(ptr noundef nonnull align 8 dereferenceable(32) %this, ptr noundef nonnull align 8 dereferenceable(64) %info) #4 align 2 {
entry:
  %this.addr = alloca ptr, align 8
  %info.addr = alloca ptr, align 8
  %ref.tmp = alloca ptr, align 8
  %written_total = alloca i64, align 8
  store ptr %this, ptr %this.addr, align 8
  store ptr %info, ptr %info.addr, align 8
  %this1 = load ptr, ptr %this.addr, align 8
  %0 = load ptr, ptr %info.addr, align 8
  %id = getelementptr inbounds %"struct.node::builtins::CodeCacheInfo", ptr %0, i32 0, i32 0
  %call = call noundef ptr @_ZNKSt7__cxx1112basic_stringIcSt11char_traitsIcESaIcEE5c_strEv(ptr noundef nonnull align 8 dereferenceable(32) %id) #3
  store ptr %call, ptr %ref.tmp, align 8
  %1 = load ptr, ptr %info.addr, align 8
  %data = getelementptr inbounds %"struct.node::builtins::CodeCacheInfo", ptr %1, i32 0, i32 1
  %length = getelementptr inbounds %"class.node::builtins::BuiltinCodeCacheData", ptr %data, i32 0, i32 1
  call void @_ZNK4node26BlobSerializerDeserializer5DebugIJPKcRKmEEEvS3_DpOT_(ptr noundef nonnull align 1 dereferenceable(1) %this1, ptr noundef @.str.46, ptr noundef nonnull align 8 dereferenceable(8) %ref.tmp, ptr noundef nonnull align 8 dereferenceable(8) %length)
  %2 = load ptr, ptr %info.addr, align 8
  %id2 = getelementptr inbounds %"struct.node::builtins::CodeCacheInfo", ptr %2, i32 0, i32 0
  %call3 = call noundef i64 @_ZN4node14BlobSerializerINS_18SnapshotSerializerEE11WriteStringERKNSt7__cxx1112basic_stringIcSt11char_traitsIcESaIcEEE(ptr noundef nonnull align 8 dereferenceable(32) %this1, ptr noundef nonnull align 8 dereferenceable(32) %id2)
  store i64 %call3, ptr %written_total, align 8
  %3 = load ptr, ptr %info.addr, align 8
  %data4 = getelementptr inbounds %"struct.node::builtins::CodeCacheInfo", ptr %3, i32 0, i32 1
  %length5 = getelementptr inbounds %"class.node::builtins::BuiltinCodeCacheData", ptr %data4, i32 0, i32 1
  %call6 = call noundef i64 @_ZN4node14BlobSerializerINS_18SnapshotSerializerEE15WriteArithmeticImEEmRKT_(ptr noundef nonnull align 8 dereferenceable(32) %this1, ptr noundef nonnull align 8 dereferenceable(8) %length5)
  %4 = load i64, ptr %written_total, align 8
  %add = add i64 %4, %call6
  store i64 %add, ptr %written_total, align 8
  %5 = load ptr, ptr %info.addr, align 8
  %data7 = getelementptr inbounds %"struct.node::builtins::CodeCacheInfo", ptr %5, i32 0, i32 1
  %data8 = getelementptr inbounds %"class.node::builtins::BuiltinCodeCacheData", ptr %data7, i32 0, i32 0
  %6 = load ptr, ptr %data8, align 8
  %7 = load ptr, ptr %info.addr, align 8
  %data9 = getelementptr inbounds %"struct.node::builtins::CodeCacheInfo", ptr %7, i32 0, i32 1
  %length10 = getelementptr inbounds %"class.node::builtins::BuiltinCodeCacheData", ptr %data9, i32 0, i32 1
  %8 = load i64, ptr %length10, align 8
  %call11 = call noundef i64 @_ZN4node14BlobSerializerINS_18SnapshotSerializerEE15WriteArithmeticIhEEmPKT_m(ptr noundef nonnull align 8 dereferenceable(32) %this1, ptr noundef %6, i64 noundef %8)
  %9 = load i64, ptr %written_total, align 8
  %add12 = add i64 %9, %call11
  store i64 %add12, ptr %written_total, align 8
  call void @_ZNK4node26BlobSerializerDeserializer5DebugIJRmEEEvPKcDpOT_(ptr noundef nonnull align 1 dereferenceable(1) %this1, ptr noundef @.str.47, ptr noundef nonnull align 8 dereferenceable(8) %written_total)
  %10 = load i64, ptr %written_total, align 8
  ret i64 %10
}