; Function Attrs: mustprogress nounwind uwtable
define dso_local noundef i64 @_ZN4node18SnapshotSerializer5WriteINS_8builtins13CodeCacheInfoETnPNSt9enable_ifIXntsr3std7is_sameIT_NSt7__cxx1112basic_stringIcSt11char_traitsIcESaIcEEEEE5valueEvE4typeELPv0ETnPNS4_IXntsr3std13is_arithmeticIS5_EE5valueEvE4typeELSF_0EEEmRKS5_(ptr noundef nonnull align 8 dereferenceable(32) %this, ptr noundef nonnull align 8 dereferenceable(64) %info) local_unnamed_addr #3 align 2 {
entry:
  %ref.tmp = alloca ptr, align 8
  %written_total = alloca i64, align 8
  %call = tail call noundef ptr @_ZNKSt7__cxx1112basic_stringIcSt11char_traitsIcESaIcEE5c_strEv(ptr noundef nonnull align 8 dereferenceable(32) %info) #23
  store ptr %call, ptr %ref.tmp, align 8
  %data = getelementptr inbounds i8, ptr %info, i64 32
  %length = getelementptr inbounds i8, ptr %info, i64 40
  %0 = load i8, ptr %this, align 8
  %1 = and i8 %0, 1
  %tobool.not.i = icmp eq i8 %1, 0
  br i1 %tobool.not.i, label %_ZNK4node26BlobSerializerDeserializer5DebugIJPKcRKmEEEvS3_DpOT_.exit, label %if.then.i

if.then.i:                                        ; preds = %entry
  %2 = load ptr, ptr @stderr, align 8
  call void @_ZN4node7FPrintFIJPKcRKmEEEvP8_IO_FILES2_DpOT_(ptr noundef %2, ptr noundef nonnull @.str.46, ptr noundef nonnull align 8 dereferenceable(8) %ref.tmp, ptr noundef nonnull align 8 dereferenceable(8) %length) #24
  br label %_ZNK4node26BlobSerializerDeserializer5DebugIJPKcRKmEEEvS3_DpOT_.exit

_ZNK4node26BlobSerializerDeserializer5DebugIJPKcRKmEEEvS3_DpOT_.exit: ; preds = %entry, %if.then.i
  %call.i = call { i64, ptr } @_ZNKSt7__cxx1112basic_stringIcSt11char_traitsIcESaIcEEcvSt17basic_string_viewIcS2_EEv(ptr noundef nonnull align 8 dereferenceable(32) %info) #23
  %3 = extractvalue { i64, ptr } %call.i, 0
  %4 = extractvalue { i64, ptr } %call.i, 1
  %call2.i = call noundef i64 @_ZN4node14BlobSerializerINS_18SnapshotSerializerEE15WriteStringViewESt17basic_string_viewIcSt11char_traitsIcEENS_13StringLogModeE(ptr noundef nonnull align 8 dereferenceable(32) %this, i64 %3, ptr %4, i32 noundef 1)
  %call.i6 = call noundef i64 @_ZN4node14BlobSerializerINS_18SnapshotSerializerEE15WriteArithmeticImEEmPKT_m(ptr noundef nonnull align 8 dereferenceable(32) %this, ptr noundef nonnull %length, i64 noundef 1)
  %add = add i64 %call2.i, %call.i6
  %5 = load ptr, ptr %data, align 8
  %6 = load i64, ptr %length, align 8
  %call11 = call noundef i64 @_ZN4node14BlobSerializerINS_18SnapshotSerializerEE15WriteArithmeticIhEEmPKT_m(ptr noundef nonnull align 8 dereferenceable(32) %this, ptr noundef %5, i64 noundef %6)
  %add12 = add i64 %add, %call11
  store i64 %add12, ptr %written_total, align 8
  %7 = load i8, ptr %this, align 8
  %8 = and i8 %7, 1
  %tobool.not.i7 = icmp eq i8 %8, 0
  br i1 %tobool.not.i7, label %_ZNK4node26BlobSerializerDeserializer5DebugIJRmEEEvPKcDpOT_.exit, label %if.then.i8

if.then.i8:                                       ; preds = %_ZNK4node26BlobSerializerDeserializer5DebugIJPKcRKmEEEvS3_DpOT_.exit
  %9 = load ptr, ptr @stderr, align 8
  call void @_ZN4node7FPrintFIJRmEEEvP8_IO_FILEPKcDpOT_(ptr noundef %9, ptr noundef nonnull @.str.47, ptr noundef nonnull align 8 dereferenceable(8) %written_total) #24
  %.pre = load i64, ptr %written_total, align 8
  br label %_ZNK4node26BlobSerializerDeserializer5DebugIJRmEEEvPKcDpOT_.exit

_ZNK4node26BlobSerializerDeserializer5DebugIJRmEEEvPKcDpOT_.exit: ; preds = %_ZNK4node26BlobSerializerDeserializer5DebugIJPKcRKmEEEvS3_DpOT_.exit, %if.then.i8
  %10 = phi i64 [ %add12, %_ZNK4node26BlobSerializerDeserializer5DebugIJPKcRKmEEEvS3_DpOT_.exit ], [ %.pre, %if.then.i8 ]
  ret i64 %10
}